target datalayout = "e-m:e-p270:32:32-p271:32:32-p272:64:64-i64:64-i128:128-f80:128-n8:16:32:64-S128"
target triple = "x86_64-pc-linux-gnu"

%struct._zend_array = type { %struct._zend_refcounted_h, %union.anon.0, i32, %union.anon.1, i32, i32, i32, i32, i64, ptr }
%struct._zend_refcounted_h = type { i32, %union.anon }
%union.anon = type { i32 }
%union.anon.0 = type { i32 }
%union.anon.1 = type { ptr }
%struct._zval_struct = type { %union._zend_value, %union.anon.3, %union.anon.6 }
%union._zend_value = type { i64 }
%union.anon.3 = type { i32 }
%union.anon.6 = type { i32 }
%struct._phar_archive_data = type { ptr, i32, ptr, i32, ptr, i32, [12 x i8], i64, i64, %struct._zend_array, %struct._zend_array, %struct._zend_array, i32, i32, i32, ptr, ptr, i32, i32, i32, ptr, %struct._phar_metadata_tracker, i32, i16 }
%struct._phar_metadata_tracker = type { %struct._zval_struct, ptr }
%struct._phar_entry_info = type { i32, i32, i32, i32, i32, i32, %struct._phar_metadata_tracker, i32, ptr, i32, i64, i64, i64, ptr, ptr, i32, ptr, ptr, ptr, i8, i32, i16, i16 }
%struct._phar_entry_data = type { ptr, ptr, i64, i64, i8, ptr }

; Function Attrs: nounwind uwtable
define hidden i32 @phar_entry_delref(ptr noundef %0) #0 {
  %2 = alloca ptr, align 8
  %3 = alloca i32, align 4
  store ptr %0, ptr %2, align 8
  store i32 0, ptr %3, align 4
  %4 = load ptr, ptr %2, align 8
  %5 = getelementptr inbounds %struct._phar_entry_data, ptr %4, i32 0, i32 5
  %6 = load ptr, ptr %5, align 8
  %7 = icmp ne ptr %6, null
  br i1 %7, label %8, label %89

8:                                                ; preds = %1
  %9 = load ptr, ptr %2, align 8
  %10 = getelementptr inbounds %struct._phar_entry_data, ptr %9, i32 0, i32 5
  %11 = load ptr, ptr %10, align 8
  %12 = getelementptr inbounds %struct._phar_entry_info, ptr %11, i32 0, i32 22
  %13 = load i16, ptr %12, align 2
  %14 = lshr i16 %13, 8
  %15 = and i16 %14, 1
  %16 = zext i16 %15 to i32
  %17 = icmp ne i32 %16, 0
  br i1 %17, label %89, label %18

18:                                               ; preds = %8
  %19 = load ptr, ptr %2, align 8
  %20 = getelementptr inbounds %struct._phar_entry_data, ptr %19, i32 0, i32 5
  %21 = load ptr, ptr %20, align 8
  %22 = getelementptr inbounds %struct._phar_entry_info, ptr %21, i32 0, i32 15
  %23 = load i32, ptr %22, align 8
  %24 = add nsw i32 %23, -1
  store i32 %24, ptr %22, align 8
  %25 = icmp slt i32 %24, 0
  br i1 %25, label %26, label %31

26:                                               ; preds = %18
  %27 = load ptr, ptr %2, align 8
  %28 = getelementptr inbounds %struct._phar_entry_data, ptr %27, i32 0, i32 5
  %29 = load ptr, ptr %28, align 8
  %30 = getelementptr inbounds %struct._phar_entry_info, ptr %29, i32 0, i32 15
  store i32 0, ptr %30, align 8
  br label %31

31:                                               ; preds = %26, %18
  %32 = load ptr, ptr %2, align 8
  %33 = getelementptr inbounds %struct._phar_entry_data, ptr %32, i32 0, i32 1
  %34 = load ptr, ptr %33, align 8
  %35 = icmp ne ptr %34, null
  br i1 %35, label %36, label %71

36:                                               ; preds = %31
  %37 = load ptr, ptr %2, align 8
  %38 = getelementptr inbounds %struct._phar_entry_data, ptr %37, i32 0, i32 1
  %39 = load ptr, ptr %38, align 8
  %40 = load ptr, ptr %2, align 8
  %41 = getelementptr inbounds %struct._phar_entry_data, ptr %40, i32 0, i32 0
  %42 = load ptr, ptr %41, align 8
  %43 = getelementptr inbounds %struct._phar_archive_data, ptr %42, i32 0, i32 15
  %44 = load ptr, ptr %43, align 8
  %45 = icmp ne ptr %39, %44
  br i1 %45, label %46, label %71

46:                                               ; preds = %36
  %47 = load ptr, ptr %2, align 8
  %48 = getelementptr inbounds %struct._phar_entry_data, ptr %47, i32 0, i32 1
  %49 = load ptr, ptr %48, align 8
  %50 = load ptr, ptr %2, align 8
  %51 = getelementptr inbounds %struct._phar_entry_data, ptr %50, i32 0, i32 0
  %52 = load ptr, ptr %51, align 8
  %53 = getelementptr inbounds %struct._phar_archive_data, ptr %52, i32 0, i32 16
  %54 = load ptr, ptr %53, align 8
  %55 = icmp ne ptr %49, %54
  br i1 %55, label %56, label %71

56:                                               ; preds = %46
  %57 = load ptr, ptr %2, align 8
  %58 = getelementptr inbounds %struct._phar_entry_data, ptr %57, i32 0, i32 1
  %59 = load ptr, ptr %58, align 8
  %60 = load ptr, ptr %2, align 8
  %61 = getelementptr inbounds %struct._phar_entry_data, ptr %60, i32 0, i32 5
  %62 = load ptr, ptr %61, align 8
  %63 = getelementptr inbounds %struct._phar_entry_info, ptr %62, i32 0, i32 13
  %64 = load ptr, ptr %63, align 8
  %65 = icmp ne ptr %59, %64
  br i1 %65, label %66, label %71

66:                                               ; preds = %56
  %67 = load ptr, ptr %2, align 8
  %68 = getelementptr inbounds %struct._phar_entry_data, ptr %67, i32 0, i32 1
  %69 = load ptr, ptr %68, align 8
  %70 = call i32 @_php_stream_free(ptr noundef %69, i32 noundef 3)
  br label %71

71:                                               ; preds = %66, %56, %46, %36, %31
  %72 = load ptr, ptr %2, align 8
  %73 = getelementptr inbounds %struct._phar_entry_data, ptr %72, i32 0, i32 5
  %74 = load ptr, ptr %73, align 8
  %75 = getelementptr inbounds %struct._phar_entry_info, ptr %74, i32 0, i32 22
  %76 = load i16, ptr %75, align 2
  %77 = lshr i16 %76, 5
  %78 = and i16 %77, 1
  %79 = zext i16 %78 to i32
  %80 = icmp ne i32 %79, 0
  br i1 %80, label %81, label %88

81:                                               ; preds = %71
  %82 = load ptr, ptr %2, align 8
  %83 = getelementptr inbounds %struct._phar_entry_data, ptr %82, i32 0, i32 5
  %84 = load ptr, ptr %83, align 8
  call void @destroy_phar_manifest_entry_int(ptr noundef %84)
  %85 = load ptr, ptr %2, align 8
  %86 = getelementptr inbounds %struct._phar_entry_data, ptr %85, i32 0, i32 5
  %87 = load ptr, ptr %86, align 8
  call void @_efree(ptr noundef %87)
  br label %88

88:                                               ; preds = %81, %71
  br label %89

89:                                               ; preds = %88, %8, %1
  %90 = load ptr, ptr %2, align 8
  %91 = getelementptr inbounds %struct._phar_entry_data, ptr %90, i32 0, i32 0
  %92 = load ptr, ptr %91, align 8
  %93 = call i32 @phar_archive_delref(ptr noundef %92)
  %94 = load ptr, ptr %2, align 8
  call void @_efree(ptr noundef %94)
  %95 = load i32, ptr %3, align 4
  ret i32 %95
}