; Function Attrs: nounwind uwtable
define hidden noundef i32 @phar_entry_delref(ptr noundef %0) local_unnamed_addr #0 {
  %2 = getelementptr inbounds i8, ptr %0, i64 40
  %3 = load ptr, ptr %2, align 8
  %.not = icmp eq ptr %3, null
  br i1 %.not, label %39, label %4

4:                                                ; preds = %1
  %5 = getelementptr inbounds i8, ptr %3, i64 154
  %6 = load i16, ptr %5, align 2
  %7 = and i16 %6, 256
  %.not18 = icmp eq i16 %7, 0
  br i1 %.not18, label %8, label %39

8:                                                ; preds = %4
  %9 = getelementptr inbounds i8, ptr %3, i64 112
  %10 = load i32, ptr %9, align 8
  %11 = add nsw i32 %10, -1
  store i32 %11, ptr %9, align 8
  %12 = icmp slt i32 %10, 1
  br i1 %12, label %13, label %16

13:                                               ; preds = %8
  %14 = load ptr, ptr %2, align 8
  %15 = getelementptr inbounds i8, ptr %14, i64 112
  store i32 0, ptr %15, align 8
  br label %16

16:                                               ; preds = %13, %8
  %17 = getelementptr inbounds i8, ptr %0, i64 8
  %18 = load ptr, ptr %17, align 8
  %.not19 = icmp eq ptr %18, null
  br i1 %.not19, label %32, label %19

19:                                               ; preds = %16
  %20 = load ptr, ptr %0, align 8
  %21 = getelementptr inbounds i8, ptr %20, i64 256
  %22 = load ptr, ptr %21, align 8
  %.not20 = icmp eq ptr %18, %22
  br i1 %.not20, label %32, label %23

23:                                               ; preds = %19
  %24 = getelementptr inbounds i8, ptr %20, i64 264
  %25 = load ptr, ptr %24, align 8
  %.not21 = icmp eq ptr %18, %25
  br i1 %.not21, label %32, label %26

26:                                               ; preds = %23
  %27 = load ptr, ptr %2, align 8
  %28 = getelementptr inbounds i8, ptr %27, i64 96
  %29 = load ptr, ptr %28, align 8
  %.not22 = icmp eq ptr %18, %29
  br i1 %.not22, label %32, label %30

30:                                               ; preds = %26
  %31 = tail call i32 @_php_stream_free(ptr noundef nonnull %18, i32 noundef 3) #23
  br label %32

32:                                               ; preds = %30, %26, %23, %19, %16
  %33 = load ptr, ptr %2, align 8
  %34 = getelementptr inbounds i8, ptr %33, i64 154
  %35 = load i16, ptr %34, align 2
  %36 = and i16 %35, 32
  %.not23 = icmp eq i16 %36, 0
  br i1 %.not23, label %39, label %37

37:                                               ; preds = %32
  tail call void @destroy_phar_manifest_entry_int(ptr noundef nonnull %33)
  %38 = load ptr, ptr %2, align 8
  tail call void @_efree(ptr noundef %38) #23
  br label %39

39:                                               ; preds = %32, %37, %4, %1
  %40 = load ptr, ptr %0, align 8
  %41 = tail call i32 @phar_archive_delref(ptr noundef %40), !range !4
  tail call void @_efree(ptr noundef nonnull %0) #23
  ret i32 0
}